; Function Attrs: null_pointer_is_valid sspstrong uwtable
define internal noalias noundef ptr @dissect_fields_sugr(ptr noundef %0, ptr noundef %1, ptr noundef %2, i32 noundef %3, i32 noundef %4, ptr noundef writeonly captures(none) %5) #0 {
  %.not = icmp eq i32 %4, 4
  br i1 %.not, label %9, label %7

7:                                                ; preds = %6
  %8 = tail call ptr @proto_tree_add_expert(ptr noundef %2, ptr noundef %0, ptr noundef nonnull @ei_alcap_parameter_field_bad_length, ptr noundef %1, i32 noundef %3, i32 noundef %4)
  br label %14

9:                                                ; preds = %6
  %10 = tail call i32 @tvb_get_ntohl(ptr noundef %1, i32 noundef %3)
  %11 = getelementptr inbounds nuw i8, ptr %5, i64 20
  store i32 %10, ptr %11, align 4
  %12 = load i32, ptr @hf_alcap_sugr, align 4
  %13 = tail call ptr @proto_tree_add_item(ptr noundef %2, i32 noundef %12, ptr noundef %1, i32 noundef %3, i32 noundef 4, i32 noundef 0)
  br label %14

14:                                               ; preds = %9, %7
  ret ptr null
}